target datalayout = "e-m:e-p270:32:32-p271:32:32-p272:64:64-i64:64-i128:128-f80:128-n8:16:32:64-S128"
target triple = "x86_64-pc-linux-gnu"

%struct.SwsImg = type { i32, [4 x ptr], [4 x i32] }
%struct.AVPixFmtDescriptor = type { ptr, i8, i8, i8, i64, [4 x %struct.AVComponentDescriptor], ptr }
%struct.AVComponentDescriptor = type { i32, i32, i32, i32, i32 }

; Function Attrs: alwaysinline nounwind willreturn memory(none) uwtable
define internal i32 @ff_fmt_vshift(i32 noundef %0, i32 noundef %1) #9 {
  %3 = alloca i32, align 4
  %4 = alloca i32, align 4
  %5 = alloca ptr, align 8
  store i32 %0, ptr %3, align 4, !tbaa !9
  store i32 %1, ptr %4, align 4, !tbaa !9
  call void @llvm.lifetime.start.p0(i64 8, ptr %5) #11
  %6 = load i32, ptr %3, align 4, !tbaa !9
  %7 = call ptr @av_pix_fmt_desc_get(i32 noundef %6)
  store ptr %7, ptr %5, align 8, !tbaa !49
  %8 = load i32, ptr %4, align 4, !tbaa !9
  %9 = icmp eq i32 %8, 1
  br i1 %9, label %13, label %10

10:                                               ; preds = %2
  %11 = load i32, ptr %4, align 4, !tbaa !9
  %12 = icmp eq i32 %11, 2
  br i1 %12, label %13, label %18

13:                                               ; preds = %10, %2
  %14 = load ptr, ptr %5, align 8, !tbaa !49
  %15 = getelementptr inbounds nuw %struct.AVPixFmtDescriptor, ptr %14, i32 0, i32 3
  %16 = load i8, ptr %15, align 2, !tbaa !120
  %17 = zext i8 %16 to i32
  br label %19

18:                                               ; preds = %10
  br label %19

19:                                               ; preds = %18, %13
  %20 = phi i32 [ %17, %13 ], [ 0, %18 ]
  call void @llvm.lifetime.end.p0(i64 8, ptr %5) #11
  ret i32 %20
}

; Function Attrs: inlinehint nounwind willreturn memory(argmem: readwrite) uwtable
define internal void @ff_sws_img_shift(ptr dead_on_unwind noalias writable sret(%struct.SwsImg) align 8 %0, ptr noundef %1, i32 noundef %2) #8 {
  %4 = alloca ptr, align 8
  %5 = alloca i32, align 4
  %6 = alloca i32, align 4
  store ptr %1, ptr %4, align 8, !tbaa !59
  store i32 %2, ptr %5, align 4, !tbaa !9
  %7 = load ptr, ptr %4, align 8, !tbaa !59
  call void @llvm.memcpy.p0.p0.i64(ptr align 8 %0, ptr align 8 %7, i64 56, i1 false), !tbaa.struct !118
  call void @llvm.lifetime.start.p0(i64 4, ptr %6) #11
  store i32 0, ptr %6, align 4, !tbaa !9
  br label %8

8:                                                ; preds = %41, %3
  %9 = load i32, ptr %6, align 4, !tbaa !9
  %10 = icmp slt i32 %9, 4
  br i1 %10, label %11, label %18

11:                                               ; preds = %8
  %12 = getelementptr inbounds nuw %struct.SwsImg, ptr %0, i32 0, i32 1
  %13 = load i32, ptr %6, align 4, !tbaa !9
  %14 = sext i32 %13 to i64
  %15 = getelementptr inbounds [4 x ptr], ptr %12, i64 0, i64 %14
  %16 = load ptr, ptr %15, align 8, !tbaa !68
  %17 = icmp ne ptr %16, null
  br label %18

18:                                               ; preds = %11, %8
  %19 = phi i1 [ false, %8 ], [ %17, %11 ]
  br i1 %19, label %21, label %20

20:                                               ; preds = %18
  call void @llvm.lifetime.end.p0(i64 4, ptr %6) #11
  br label %44

21:                                               ; preds = %18
  %22 = load i32, ptr %5, align 4, !tbaa !9
  %23 = getelementptr inbounds nuw %struct.SwsImg, ptr %0, i32 0, i32 0
  %24 = load i32, ptr %23, align 8, !tbaa !111
  %25 = load i32, ptr %6, align 4, !tbaa !9
  %26 = call i32 @ff_fmt_vshift(i32 noundef %24, i32 noundef %25) #14
  %27 = ashr i32 %22, %26
  %28 = getelementptr inbounds nuw %struct.SwsImg, ptr %0, i32 0, i32 2
  %29 = load i32, ptr %6, align 4, !tbaa !9
  %30 = sext i32 %29 to i64
  %31 = getelementptr inbounds [4 x i32], ptr %28, i64 0, i64 %30
  %32 = load i32, ptr %31, align 4, !tbaa !9
  %33 = mul nsw i32 %27, %32
  %34 = getelementptr inbounds nuw %struct.SwsImg, ptr %0, i32 0, i32 1
  %35 = load i32, ptr %6, align 4, !tbaa !9
  %36 = sext i32 %35 to i64
  %37 = getelementptr inbounds [4 x ptr], ptr %34, i64 0, i64 %36
  %38 = load ptr, ptr %37, align 8, !tbaa !68
  %39 = sext i32 %33 to i64
  %40 = getelementptr inbounds i8, ptr %38, i64 %39
  store ptr %40, ptr %37, align 8, !tbaa !68
  br label %41

41:                                               ; preds = %21
  %42 = load i32, ptr %6, align 4, !tbaa !9
  %43 = add nsw i32 %42, 1
  store i32 %43, ptr %6, align 4, !tbaa !9
  br label %8, !llvm.loop !119

44:                                               ; preds = %20
  ret void
}

; Function Attrs: nounwind uwtable
define internal void @run_copy(ptr noundef %0, ptr noundef %1, i32 noundef %2, i32 noundef %3, ptr noundef %4) #0 {
  %6 = alloca ptr, align 8
  %7 = alloca ptr, align 8
  %8 = alloca i32, align 4
  %9 = alloca i32, align 4
  %10 = alloca ptr, align 8
  %11 = alloca %struct.SwsImg, align 8
  %12 = alloca %struct.SwsImg, align 8
  %13 = alloca i32, align 4
  %14 = alloca i32, align 4
  %15 = alloca i32, align 4
  %16 = alloca i32, align 4
  %17 = alloca i32, align 4
  store ptr %0, ptr %6, align 8, !tbaa !59
  store ptr %1, ptr %7, align 8, !tbaa !59
  store i32 %2, ptr %8, align 4, !tbaa !9
  store i32 %3, ptr %9, align 4, !tbaa !9
  store ptr %4, ptr %10, align 8, !tbaa !11
  call void @llvm.lifetime.start.p0(i64 56, ptr %11) #11
  %18 = load ptr, ptr %7, align 8, !tbaa !59
  %19 = load i32, ptr %8, align 4, !tbaa !9
  call void @ff_sws_img_shift(ptr dead_on_unwind writable sret(%struct.SwsImg) align 8 %11, ptr noundef %18, i32 noundef %19) #13
  call void @llvm.lifetime.start.p0(i64 56, ptr %12) #11
  %20 = load ptr, ptr %6, align 8, !tbaa !59
  %21 = load i32, ptr %8, align 4, !tbaa !9
  call void @ff_sws_img_shift(ptr dead_on_unwind writable sret(%struct.SwsImg) align 8 %12, ptr noundef %20, i32 noundef %21) #13
  call void @llvm.lifetime.start.p0(i64 4, ptr %13) #11
  store i32 0, ptr %13, align 4, !tbaa !9
  br label %22

22:                                               ; preds = %146, %5
  %23 = load i32, ptr %13, align 4, !tbaa !9
  %24 = sext i32 %23 to i64
  %25 = icmp ult i64 %24, 4
  br i1 %25, label %26, label %33

26:                                               ; preds = %22
  %27 = getelementptr inbounds nuw %struct.SwsImg, ptr %12, i32 0, i32 1
  %28 = load i32, ptr %13, align 4, !tbaa !9
  %29 = sext i32 %28 to i64
  %30 = getelementptr inbounds [4 x ptr], ptr %27, i64 0, i64 %29
  %31 = load ptr, ptr %30, align 8, !tbaa !68
  %32 = icmp ne ptr %31, null
  br label %33

33:                                               ; preds = %26, %22
  %34 = phi i1 [ false, %22 ], [ %32, %26 ]
  br i1 %34, label %36, label %35

35:                                               ; preds = %33
  store i32 2, ptr %14, align 4
  call void @llvm.lifetime.end.p0(i64 4, ptr %13) #11
  br label %149

36:                                               ; preds = %33
  call void @llvm.lifetime.start.p0(i64 4, ptr %15) #11
  %37 = load i32, ptr %9, align 4, !tbaa !9
  %38 = getelementptr inbounds nuw %struct.SwsImg, ptr %11, i32 0, i32 0
  %39 = load i32, ptr %38, align 8, !tbaa !111
  %40 = load i32, ptr %13, align 4, !tbaa !9
  %41 = call i32 @ff_fmt_vshift(i32 noundef %39, i32 noundef %40) #14
  %42 = ashr i32 %37, %41
  store i32 %42, ptr %15, align 4, !tbaa !9
  %43 = getelementptr inbounds nuw %struct.SwsImg, ptr %11, i32 0, i32 2
  %44 = load i32, ptr %13, align 4, !tbaa !9
  %45 = sext i32 %44 to i64
  %46 = getelementptr inbounds [4 x i32], ptr %43, i64 0, i64 %45
  %47 = load i32, ptr %46, align 4, !tbaa !9
  %48 = getelementptr inbounds nuw %struct.SwsImg, ptr %12, i32 0, i32 2
  %49 = load i32, ptr %13, align 4, !tbaa !9
  %50 = sext i32 %49 to i64
  %51 = getelementptr inbounds [4 x i32], ptr %48, i64 0, i64 %50
  %52 = load i32, ptr %51, align 4, !tbaa !9
  %53 = icmp eq i32 %47, %52
  br i1 %53, label %54, label %73

54:                                               ; preds = %36
  %55 = getelementptr inbounds nuw %struct.SwsImg, ptr %12, i32 0, i32 1
  %56 = load i32, ptr %13, align 4, !tbaa !9
  %57 = sext i32 %56 to i64
  %58 = getelementptr inbounds [4 x ptr], ptr %55, i64 0, i64 %57
  %59 = load ptr, ptr %58, align 8, !tbaa !68
  %60 = getelementptr inbounds nuw %struct.SwsImg, ptr %11, i32 0, i32 1
  %61 = load i32, ptr %13, align 4, !tbaa !9
  %62 = sext i32 %61 to i64
  %63 = getelementptr inbounds [4 x ptr], ptr %60, i64 0, i64 %62
  %64 = load ptr, ptr %63, align 8, !tbaa !68
  %65 = load i32, ptr %15, align 4, !tbaa !9
  %66 = getelementptr inbounds nuw %struct.SwsImg, ptr %12, i32 0, i32 2
  %67 = load i32, ptr %13, align 4, !tbaa !9
  %68 = sext i32 %67 to i64
  %69 = getelementptr inbounds [4 x i32], ptr %66, i64 0, i64 %68
  %70 = load i32, ptr %69, align 4, !tbaa !9
  %71 = mul nsw i32 %65, %70
  %72 = sext i32 %71 to i64
  call void @llvm.memcpy.p0.p0.i64(ptr align 1 %59, ptr align 1 %64, i64 %72, i1 false)
  br label %145

73:                                               ; preds = %36
  call void @llvm.lifetime.start.p0(i64 4, ptr %16) #11
  %74 = getelementptr inbounds nuw %struct.SwsImg, ptr %12, i32 0, i32 2
  %75 = load i32, ptr %13, align 4, !tbaa !9
  %76 = sext i32 %75 to i64
  %77 = getelementptr inbounds [4 x i32], ptr %74, i64 0, i64 %76
  %78 = load i32, ptr %77, align 4, !tbaa !9
  %79 = getelementptr inbounds nuw %struct.SwsImg, ptr %11, i32 0, i32 2
  %80 = load i32, ptr %13, align 4, !tbaa !9
  %81 = sext i32 %80 to i64
  %82 = getelementptr inbounds [4 x i32], ptr %79, i64 0, i64 %81
  %83 = load i32, ptr %82, align 4, !tbaa !9
  %84 = icmp sgt i32 %78, %83
  br i1 %84, label %85, label %91

85:                                               ; preds = %73
  %86 = getelementptr inbounds nuw %struct.SwsImg, ptr %11, i32 0, i32 2
  %87 = load i32, ptr %13, align 4, !tbaa !9
  %88 = sext i32 %87 to i64
  %89 = getelementptr inbounds [4 x i32], ptr %86, i64 0, i64 %88
  %90 = load i32, ptr %89, align 4, !tbaa !9
  br label %97

91:                                               ; preds = %73
  %92 = getelementptr inbounds nuw %struct.SwsImg, ptr %12, i32 0, i32 2
  %93 = load i32, ptr %13, align 4, !tbaa !9
  %94 = sext i32 %93 to i64
  %95 = getelementptr inbounds [4 x i32], ptr %92, i64 0, i64 %94
  %96 = load i32, ptr %95, align 4, !tbaa !9
  br label %97

97:                                               ; preds = %91, %85
  %98 = phi i32 [ %90, %85 ], [ %96, %91 ]
  store i32 %98, ptr %16, align 4, !tbaa !9
  call void @llvm.lifetime.start.p0(i64 4, ptr %17) #11
  store i32 0, ptr %17, align 4, !tbaa !9
  br label %99

99:                                               ; preds = %141, %97
  %100 = load i32, ptr %17, align 4, !tbaa !9
  %101 = load i32, ptr %15, align 4, !tbaa !9
  %102 = icmp slt i32 %100, %101
  br i1 %102, label %104, label %103

103:                                              ; preds = %99
  store i32 5, ptr %14, align 4
  call void @llvm.lifetime.end.p0(i64 4, ptr %17) #11
  br label %144

104:                                              ; preds = %99
  %105 = getelementptr inbounds nuw %struct.SwsImg, ptr %12, i32 0, i32 1
  %106 = load i32, ptr %13, align 4, !tbaa !9
  %107 = sext i32 %106 to i64
  %108 = getelementptr inbounds [4 x ptr], ptr %105, i64 0, i64 %107
  %109 = load ptr, ptr %108, align 8, !tbaa !68
  %110 = getelementptr inbounds nuw %struct.SwsImg, ptr %11, i32 0, i32 1
  %111 = load i32, ptr %13, align 4, !tbaa !9
  %112 = sext i32 %111 to i64
  %113 = getelementptr inbounds [4 x ptr], ptr %110, i64 0, i64 %112
  %114 = load ptr, ptr %113, align 8, !tbaa !68
  %115 = load i32, ptr %16, align 4, !tbaa !9
  %116 = sext i32 %115 to i64
  call void @llvm.memcpy.p0.p0.i64(ptr align 1 %109, ptr align 1 %114, i64 %116, i1 false)
  %117 = getelementptr inbounds nuw %struct.SwsImg, ptr %11, i32 0, i32 2
  %118 = load i32, ptr %13, align 4, !tbaa !9
  %119 = sext i32 %118 to i64
  %120 = getelementptr inbounds [4 x i32], ptr %117, i64 0, i64 %119
  %121 = load i32, ptr %120, align 4, !tbaa !9
  %122 = getelementptr inbounds nuw %struct.SwsImg, ptr %11, i32 0, i32 1
  %123 = load i32, ptr %13, align 4, !tbaa !9
  %124 = sext i32 %123 to i64
  %125 = getelementptr inbounds [4 x ptr], ptr %122, i64 0, i64 %124
  %126 = load ptr, ptr %125, align 8, !tbaa !68
  %127 = sext i32 %121 to i64
  %128 = getelementptr inbounds i8, ptr %126, i64 %127
  store ptr %128, ptr %125, align 8, !tbaa !68
  %129 = getelementptr inbounds nuw %struct.SwsImg, ptr %12, i32 0, i32 2
  %130 = load i32, ptr %13, align 4, !tbaa !9
  %131 = sext i32 %130 to i64
  %132 = getelementptr inbounds [4 x i32], ptr %129, i64 0, i64 %131
  %133 = load i32, ptr %132, align 4, !tbaa !9
  %134 = getelementptr inbounds nuw %struct.SwsImg, ptr %12, i32 0, i32 1
  %135 = load i32, ptr %13, align 4, !tbaa !9
  %136 = sext i32 %135 to i64
  %137 = getelementptr inbounds [4 x ptr], ptr %134, i64 0, i64 %136
  %138 = load ptr, ptr %137, align 8, !tbaa !68
  %139 = sext i32 %133 to i64
  %140 = getelementptr inbounds i8, ptr %138, i64 %139
  store ptr %140, ptr %137, align 8, !tbaa !68
  br label %141

141:                                              ; preds = %104
  %142 = load i32, ptr %17, align 4, !tbaa !9
  %143 = add nsw i32 %142, 1
  store i32 %143, ptr %17, align 4, !tbaa !9
  br label %99, !llvm.loop !112

144:                                              ; preds = %103
  call void @llvm.lifetime.end.p0(i64 4, ptr %16) #11
  br label %145

145:                                              ; preds = %144, %54
  call void @llvm.lifetime.end.p0(i64 4, ptr %15) #11
  br label %146

146:                                              ; preds = %145
  %147 = load i32, ptr %13, align 4, !tbaa !9
  %148 = add nsw i32 %147, 1
  store i32 %148, ptr %13, align 4, !tbaa !9
  br label %22, !llvm.loop !113

149:                                              ; preds = %35
  call void @llvm.lifetime.end.p0(i64 56, ptr %12) #11
  call void @llvm.lifetime.end.p0(i64 56, ptr %11) #11
  ret void
}