; Function Attrs: nounwind uwtable
define internal void @run_copy(ptr noundef readonly captures(none) %0, ptr noundef readonly captures(none) %1, i32 noundef %2, i32 noundef %3, ptr readnone captures(none) %4) #0 {
  %6 = alloca %struct.SwsImg, align 8
  %7 = alloca %struct.SwsImg, align 8
  call void @llvm.lifetime.start.p0(i64 56, ptr nonnull %6) #12
  tail call void @llvm.experimental.noalias.scope.decl(metadata !110)
  call void @llvm.memcpy.p0.p0.i64(ptr noundef nonnull align 8 dereferenceable(56) %6, ptr noundef nonnull readonly align 8 dereferenceable(56) %1, i64 56, i1 false), !tbaa.struct !113
  %8 = getelementptr inbounds nuw i8, ptr %6, i64 8
  %9 = getelementptr inbounds nuw i8, ptr %6, i64 40
  %10 = load i32, ptr %6, align 8
  br label %11

11:                                               ; preds = %ff_fmt_vshift.exit.i, %5
  %indvars.iv.i = phi i64 [ 0, %5 ], [ %indvars.iv.next.i, %ff_fmt_vshift.exit.i ]
  %12 = getelementptr inbounds nuw [4 x ptr], ptr %8, i64 0, i64 %indvars.iv.i
  %13 = load ptr, ptr %12, align 8, !tbaa !75, !alias.scope !110
  %.not.i = icmp eq ptr %13, null
  br i1 %.not.i, label %ff_sws_img_shift.exit, label %14

14:                                               ; preds = %11
  %15 = tail call ptr @av_pix_fmt_desc_get(i32 noundef %10) #12, !noalias !110
  %16 = trunc i64 %indvars.iv.i to i32
  %17 = add i32 %16, -1
  %or.cond.i.i = icmp ult i32 %17, 2
  br i1 %or.cond.i.i, label %18, label %ff_fmt_vshift.exit.i

18:                                               ; preds = %14
  %19 = getelementptr inbounds nuw i8, ptr %15, i64 10
  %20 = load i8, ptr %19, align 2, !tbaa !105, !noalias !110
  %21 = zext i8 %20 to i32
  br label %ff_fmt_vshift.exit.i

ff_fmt_vshift.exit.i:                             ; preds = %18, %14
  %22 = phi i32 [ %21, %18 ], [ 0, %14 ]
  %23 = ashr i32 %2, %22
  %24 = getelementptr inbounds nuw [4 x i32], ptr %9, i64 0, i64 %indvars.iv.i
  %25 = load i32, ptr %24, align 4, !tbaa !42, !alias.scope !110
  %26 = mul nsw i32 %23, %25
  %27 = sext i32 %26 to i64
  %28 = getelementptr inbounds i8, ptr %13, i64 %27
  store ptr %28, ptr %12, align 8, !tbaa !75, !alias.scope !110
  %indvars.iv.next.i = add nuw nsw i64 %indvars.iv.i, 1
  %exitcond.not.i = icmp eq i64 %indvars.iv.next.i, 4
  br i1 %exitcond.not.i, label %ff_sws_img_shift.exit, label %11, !llvm.loop !114

ff_sws_img_shift.exit:                            ; preds = %11, %ff_fmt_vshift.exit.i
  call void @llvm.lifetime.start.p0(i64 56, ptr nonnull %7) #12
  tail call void @llvm.experimental.noalias.scope.decl(metadata !115)
  call void @llvm.memcpy.p0.p0.i64(ptr noundef nonnull align 8 dereferenceable(56) %7, ptr noundef nonnull readonly align 8 dereferenceable(56) %0, i64 56, i1 false), !tbaa.struct !113
  %29 = getelementptr inbounds nuw i8, ptr %7, i64 8
  %30 = getelementptr inbounds nuw i8, ptr %7, i64 40
  %31 = load i32, ptr %7, align 8
  br label %32

32:                                               ; preds = %ff_fmt_vshift.exit.i36, %ff_sws_img_shift.exit
  %indvars.iv.i33 = phi i64 [ 0, %ff_sws_img_shift.exit ], [ %indvars.iv.next.i37, %ff_fmt_vshift.exit.i36 ]
  %33 = getelementptr inbounds nuw [4 x ptr], ptr %29, i64 0, i64 %indvars.iv.i33
  %34 = load ptr, ptr %33, align 8, !tbaa !75, !alias.scope !115
  %.not.i34 = icmp eq ptr %34, null
  br i1 %.not.i34, label %ff_sws_img_shift.exit39.preheader, label %35

35:                                               ; preds = %32
  %36 = tail call ptr @av_pix_fmt_desc_get(i32 noundef %31) #12, !noalias !115
  %37 = trunc i64 %indvars.iv.i33 to i32
  %38 = add i32 %37, -1
  %or.cond.i.i35 = icmp ult i32 %38, 2
  br i1 %or.cond.i.i35, label %39, label %ff_fmt_vshift.exit.i36

39:                                               ; preds = %35
  %40 = getelementptr inbounds nuw i8, ptr %36, i64 10
  %41 = load i8, ptr %40, align 2, !tbaa !105, !noalias !115
  %42 = zext i8 %41 to i32
  br label %ff_fmt_vshift.exit.i36

ff_fmt_vshift.exit.i36:                           ; preds = %39, %35
  %43 = phi i32 [ %42, %39 ], [ 0, %35 ]
  %44 = ashr i32 %2, %43
  %45 = getelementptr inbounds nuw [4 x i32], ptr %30, i64 0, i64 %indvars.iv.i33
  %46 = load i32, ptr %45, align 4, !tbaa !42, !alias.scope !115
  %47 = mul nsw i32 %44, %46
  %48 = sext i32 %47 to i64
  %49 = getelementptr inbounds i8, ptr %34, i64 %48
  store ptr %49, ptr %33, align 8, !tbaa !75, !alias.scope !115
  %indvars.iv.next.i37 = add nuw nsw i64 %indvars.iv.i33, 1
  %exitcond.not.i38 = icmp eq i64 %indvars.iv.next.i37, 4
  br i1 %exitcond.not.i38, label %ff_sws_img_shift.exit39.preheader, label %32, !llvm.loop !114

ff_sws_img_shift.exit39.preheader:                ; preds = %32, %ff_fmt_vshift.exit.i36
  br label %ff_sws_img_shift.exit39

ff_sws_img_shift.exit39:                          ; preds = %ff_sws_img_shift.exit39.preheader, %.loopexit
  %indvars.iv = phi i64 [ %indvars.iv.next, %.loopexit ], [ 0, %ff_sws_img_shift.exit39.preheader ]
  %50 = getelementptr inbounds nuw [4 x ptr], ptr %29, i64 0, i64 %indvars.iv
  %51 = load ptr, ptr %50, align 8, !tbaa !75
  %.not = icmp eq ptr %51, null
  br i1 %.not, label %.critedge, label %52

.critedge:                                        ; preds = %.loopexit, %ff_sws_img_shift.exit39
  call void @llvm.lifetime.end.p0(i64 56, ptr nonnull %7) #12
  call void @llvm.lifetime.end.p0(i64 56, ptr nonnull %6) #12
  ret void

52:                                               ; preds = %ff_sws_img_shift.exit39
  %53 = tail call ptr @av_pix_fmt_desc_get(i32 noundef %10) #12
  %54 = trunc i64 %indvars.iv to i32
  %55 = add i32 %54, -1
  %or.cond.i = icmp ult i32 %55, 2
  br i1 %or.cond.i, label %56, label %ff_fmt_vshift.exit

56:                                               ; preds = %52
  %57 = getelementptr inbounds nuw i8, ptr %53, i64 10
  %58 = load i8, ptr %57, align 2, !tbaa !105
  %59 = zext i8 %58 to i32
  br label %ff_fmt_vshift.exit

ff_fmt_vshift.exit:                               ; preds = %52, %56
  %60 = phi i32 [ %59, %56 ], [ 0, %52 ]
  %61 = ashr i32 %3, %60
  %62 = getelementptr inbounds nuw [4 x i32], ptr %9, i64 0, i64 %indvars.iv
  %63 = load i32, ptr %62, align 4, !tbaa !42
  %64 = getelementptr inbounds nuw [4 x i32], ptr %30, i64 0, i64 %indvars.iv
  %65 = load i32, ptr %64, align 4, !tbaa !42
  %66 = icmp eq i32 %63, %65
  br i1 %66, label %67, label %72

67:                                               ; preds = %ff_fmt_vshift.exit
  %68 = getelementptr inbounds nuw [4 x ptr], ptr %8, i64 0, i64 %indvars.iv
  %69 = load ptr, ptr %68, align 8, !tbaa !75
  %70 = mul nsw i32 %63, %61
  %71 = sext i32 %70 to i64
  tail call void @llvm.memcpy.p0.p0.i64(ptr nonnull align 1 %51, ptr align 1 %69, i64 %71, i1 false)
  br label %.loopexit

72:                                               ; preds = %ff_fmt_vshift.exit
  %73 = icmp sgt i32 %61, 0
  br i1 %73, label %.lr.ph, label %.loopexit

.lr.ph:                                           ; preds = %72
  %. = tail call i32 @llvm.smin.i32(i32 %65, i32 %63)
  %74 = getelementptr inbounds nuw [4 x ptr], ptr %8, i64 0, i64 %indvars.iv
  %75 = sext i32 %. to i64
  %76 = sext i32 %63 to i64
  %77 = sext i32 %65 to i64
  %.promoted41 = load ptr, ptr %74, align 8, !tbaa !75
  br label %78

78:                                               ; preds = %.lr.ph, %78
  %79 = phi ptr [ %.promoted41, %.lr.ph ], [ %81, %78 ]
  %80 = phi ptr [ %51, %.lr.ph ], [ %82, %78 ]
  %.040 = phi i32 [ 0, %.lr.ph ], [ %83, %78 ]
  tail call void @llvm.memcpy.p0.p0.i64(ptr align 1 %80, ptr align 1 %79, i64 %75, i1 false)
  %81 = getelementptr inbounds i8, ptr %79, i64 %76
  %82 = getelementptr inbounds i8, ptr %80, i64 %77
  %83 = add nuw nsw i32 %.040, 1
  %exitcond.not = icmp eq i32 %83, %61
  br i1 %exitcond.not, label %..loopexit_crit_edge, label %78, !llvm.loop !118

..loopexit_crit_edge:                             ; preds = %78
  store ptr %82, ptr %50, align 8, !tbaa !75
  store ptr %81, ptr %74, align 8, !tbaa !75
  br label %.loopexit

.loopexit:                                        ; preds = %72, %..loopexit_crit_edge, %67
  %indvars.iv.next = add nuw nsw i64 %indvars.iv, 1
  %exitcond46.not = icmp eq i64 %indvars.iv.next, 4
  br i1 %exitcond46.not, label %.critedge, label %ff_sws_img_shift.exit39, !llvm.loop !119
}